target datalayout = "e-m:e-p270:32:32-p271:32:32-p272:64:64-i64:64-i128:128-f80:128-n8:16:32:64-S128"
target triple = "x86_64-unknown-linux-gnu"

%"class.Imf_3_2::SampleCountChannel" = type { %"class.Imf_3_2::ImageChannel", ptr, ptr, ptr, ptr, i64, i64, i64 }
%"class.Imf_3_2::ImageChannel" = type { ptr, ptr, i32, i32, i8, i32, i32, i64 }
%"class.Imath_3_2::Box" = type { %"class.Imath_3_2::Vec2", %"class.Imath_3_2::Vec2" }
%"class.Imath_3_2::Vec2" = type { i32, i32 }
%"class.Imf_3_2::ImageLevel" = type { ptr, ptr, i32, i32, %"class.Imath_3_2::Box" }

; Function Attrs: mustprogress nounwind uwtable
define linkonce_odr hidden noundef i32 @_ZNK7Imf_3_212ImageChannel12pixelsPerRowEv(ptr noundef nonnull align 8 dereferenceable(48) %this) #5 comdat align 2 {
entry:
  %this.addr = alloca ptr, align 8
  store ptr %this, ptr %this.addr, align 8
  %this1 = load ptr, ptr %this.addr, align 8
  %_pixelsPerRow = getelementptr inbounds %"class.Imf_3_2::ImageChannel", ptr %this1, i32 0, i32 5
  %0 = load i32, ptr %_pixelsPerRow, align 4
  ret i32 %0
}

; Function Attrs: mustprogress nounwind uwtable
define linkonce_odr hidden noundef nonnull align 4 dereferenceable(16) ptr @_ZNK7Imf_3_210ImageLevel10dataWindowEv(ptr noundef nonnull align 8 dereferenceable(40) %this) #5 comdat align 2 {
entry:
  %this.addr = alloca ptr, align 8
  store ptr %this, ptr %this.addr, align 8
  %this1 = load ptr, ptr %this.addr, align 8
  %_dataWindow = getelementptr inbounds %"class.Imf_3_2::ImageLevel", ptr %this1, i32 0, i32 4
  ret ptr %_dataWindow
}

; Function Attrs: mustprogress nounwind uwtable
define linkonce_odr hidden noundef nonnull align 8 dereferenceable(40) ptr @_ZN7Imf_3_212ImageChannel5levelEv(ptr noundef nonnull align 8 dereferenceable(48) %this) #5 comdat align 2 {
entry:
  %this.addr = alloca ptr, align 8
  store ptr %this, ptr %this.addr, align 8
  %this1 = load ptr, ptr %this.addr, align 8
  %_level = getelementptr inbounds %"class.Imf_3_2::ImageChannel", ptr %this1, i32 0, i32 1
  %0 = load ptr, ptr %_level, align 8
  ret ptr %0
}

; Function Attrs: mustprogress uwtable
define void @_ZN7Imf_3_218SampleCountChannel16resetBasePointerEv(ptr noundef nonnull align 8 dereferenceable(104) %this) #4 align 2 {
entry:
  %this.addr = alloca ptr, align 8
  store ptr %this, ptr %this.addr, align 8
  %this1 = load ptr, ptr %this.addr, align 8
  %_numSamples = getelementptr inbounds %"class.Imf_3_2::SampleCountChannel", ptr %this1, i32 0, i32 1
  %0 = load ptr, ptr %_numSamples, align 8
  %call = call noundef nonnull align 8 dereferenceable(40) ptr @_ZN7Imf_3_212ImageChannel5levelEv(ptr noundef nonnull align 8 dereferenceable(48) %this1)
  %call2 = call noundef nonnull align 4 dereferenceable(16) ptr @_ZNK7Imf_3_210ImageLevel10dataWindowEv(ptr noundef nonnull align 8 dereferenceable(40) %call)
  %min = getelementptr inbounds %"class.Imath_3_2::Box", ptr %call2, i32 0, i32 0
  %y = getelementptr inbounds %"class.Imath_3_2::Vec2", ptr %min, i32 0, i32 1
  %1 = load i32, ptr %y, align 4
  %call3 = call noundef i32 @_ZNK7Imf_3_212ImageChannel12pixelsPerRowEv(ptr noundef nonnull align 8 dereferenceable(48) %this1)
  %mul = mul nsw i32 %1, %call3
  %idx.ext = sext i32 %mul to i64
  %idx.neg = sub i64 0, %idx.ext
  %add.ptr = getelementptr inbounds i32, ptr %0, i64 %idx.neg
  %call4 = call noundef nonnull align 8 dereferenceable(40) ptr @_ZN7Imf_3_212ImageChannel5levelEv(ptr noundef nonnull align 8 dereferenceable(48) %this1)
  %call5 = call noundef nonnull align 4 dereferenceable(16) ptr @_ZNK7Imf_3_210ImageLevel10dataWindowEv(ptr noundef nonnull align 8 dereferenceable(40) %call4)
  %min6 = getelementptr inbounds %"class.Imath_3_2::Box", ptr %call5, i32 0, i32 0
  %x = getelementptr inbounds %"class.Imath_3_2::Vec2", ptr %min6, i32 0, i32 0
  %2 = load i32, ptr %x, align 4
  %idx.ext7 = sext i32 %2 to i64
  %idx.neg8 = sub i64 0, %idx.ext7
  %add.ptr9 = getelementptr inbounds i32, ptr %add.ptr, i64 %idx.neg8
  %_base = getelementptr inbounds %"class.Imf_3_2::SampleCountChannel", ptr %this1, i32 0, i32 2
  store ptr %add.ptr9, ptr %_base, align 8
  ret void
}