; Function Attrs: mustprogress nofree norecurse nosync nounwind willreturn memory(read, argmem: readwrite, inaccessiblemem: none) uwtable
define void @_ZN7Imf_3_218SampleCountChannel16resetBasePointerEv(ptr nocapture noundef nonnull align 8 dereferenceable(104) %this) local_unnamed_addr #9 align 2 {
entry:
  %_numSamples = getelementptr inbounds i8, ptr %this, i64 48
  %0 = load ptr, ptr %_numSamples, align 8
  %_level.i = getelementptr inbounds i8, ptr %this, i64 8
  %1 = load ptr, ptr %_level.i, align 8
  %_dataWindow.i = getelementptr inbounds i8, ptr %1, i64 24
  %y = getelementptr inbounds i8, ptr %1, i64 28
  %2 = load i32, ptr %y, align 4
  %_pixelsPerRow.i = getelementptr inbounds i8, ptr %this, i64 28
  %3 = load i32, ptr %_pixelsPerRow.i, align 4
  %mul = mul nsw i32 %3, %2
  %idx.ext = sext i32 %mul to i64
  %idx.neg = sub nsw i64 0, %idx.ext
  %add.ptr = getelementptr inbounds i32, ptr %0, i64 %idx.neg
  %4 = load i32, ptr %_dataWindow.i, align 4
  %idx.ext7 = sext i32 %4 to i64
  %idx.neg8 = sub nsw i64 0, %idx.ext7
  %add.ptr9 = getelementptr inbounds i32, ptr %add.ptr, i64 %idx.neg8
  %_base = getelementptr inbounds i8, ptr %this, i64 56
  store ptr %add.ptr9, ptr %_base, align 8
  ret void
}